target datalayout = "e-m:e-p270:32:32-p271:32:32-p272:64:64-i64:64-i128:128-f80:128-n8:16:32:64-S128"
target triple = "x86_64-pc-linux-gnu"

%struct.ItemPointerData = type { %struct.BlockIdData, i16 }
%struct.BlockIdData = type { i16, i16 }
%struct.ScanKeyData = type { i32, i16, i16, i32, i32, %struct.FmgrInfo, i64 }
%struct.FmgrInfo = type { ptr, i32, i16, i8, i8, i8, ptr, ptr, ptr }
%struct.FormData_pg_depend = type { i32, i32, i32, i32, i32, i32, i8 }
%struct.HeapTupleData = type { i32, %struct.ItemPointerData, i32, ptr }
%struct.HeapTupleHeaderData = type { %union.anon, %struct.ItemPointerData, i16, i16, i8, [0 x i8] }
%union.anon = type { %struct.HeapTupleFields }
%struct.HeapTupleFields = type { i32, i32, %union.anon.0 }
%union.anon.0 = type { i32 }

; Function Attrs: inlinehint nounwind uwtable
define internal ptr @GETSTRUCT(ptr noundef %0) #3 {
  %2 = alloca ptr, align 8
  store ptr %0, ptr %2, align 8
  %3 = load ptr, ptr %2, align 8
  %4 = getelementptr inbounds nuw %struct.HeapTupleData, ptr %3, i32 0, i32 3
  %5 = load ptr, ptr %4, align 8
  %6 = load ptr, ptr %2, align 8
  %7 = getelementptr inbounds nuw %struct.HeapTupleData, ptr %6, i32 0, i32 3
  %8 = load ptr, ptr %7, align 8
  %9 = getelementptr inbounds nuw %struct.HeapTupleHeaderData, ptr %8, i32 0, i32 4
  %10 = load i8, ptr %9, align 2
  %11 = zext i8 %10 to i32
  %12 = sext i32 %11 to i64
  %13 = getelementptr inbounds i8, ptr %5, i64 %12
  ret ptr %13
}

; Function Attrs: inlinehint nounwind uwtable
define internal i64 @ObjectIdGetDatum(i32 noundef %0) #3 {
  %2 = alloca i32, align 4
  store i32 %0, ptr %2, align 4
  %3 = load i32, ptr %2, align 4
  %4 = zext i32 %3 to i64
  ret i64 %4
}

; Function Attrs: nounwind uwtable
define dso_local i64 @deleteDependencyRecordsForClass(i32 noundef %0, i32 noundef %1, i32 noundef %2, i8 noundef signext %3) #0 {
  %5 = alloca i32, align 4
  %6 = alloca i32, align 4
  %7 = alloca i32, align 4
  %8 = alloca i8, align 1
  %9 = alloca i64, align 8
  %10 = alloca ptr, align 8
  %11 = alloca [2 x %struct.ScanKeyData], align 16
  %12 = alloca ptr, align 8
  %13 = alloca ptr, align 8
  %14 = alloca ptr, align 8
  store i32 %0, ptr %5, align 4
  store i32 %1, ptr %6, align 4
  store i32 %2, ptr %7, align 4
  store i8 %3, ptr %8, align 1
  call void @llvm.lifetime.start.p0(i64 8, ptr %9) #6
  store i64 0, ptr %9, align 8
  call void @llvm.lifetime.start.p0(i64 8, ptr %10) #6
  call void @llvm.lifetime.start.p0(i64 144, ptr %11) #6
  call void @llvm.lifetime.start.p0(i64 8, ptr %12) #6
  call void @llvm.lifetime.start.p0(i64 8, ptr %13) #6
  %15 = call ptr @table_open(i32 noundef 2608, i32 noundef 3)
  store ptr %15, ptr %10, align 8
  %16 = getelementptr inbounds [2 x %struct.ScanKeyData], ptr %11, i64 0, i64 0
  %17 = load i32, ptr %5, align 4
  %18 = call i64 @ObjectIdGetDatum(i32 noundef %17)
  call void @ScanKeyInit(ptr noundef %16, i16 noundef signext 1, i16 noundef zeroext 3, i32 noundef 184, i64 noundef %18)
  %19 = getelementptr inbounds [2 x %struct.ScanKeyData], ptr %11, i64 0, i64 1
  %20 = load i32, ptr %6, align 4
  %21 = call i64 @ObjectIdGetDatum(i32 noundef %20)
  call void @ScanKeyInit(ptr noundef %19, i16 noundef signext 2, i16 noundef zeroext 3, i32 noundef 184, i64 noundef %21)
  %22 = load ptr, ptr %10, align 8
  %23 = getelementptr inbounds [2 x %struct.ScanKeyData], ptr %11, i64 0, i64 0
  %24 = call ptr @systable_beginscan(ptr noundef %22, i32 noundef 2673, i1 noundef zeroext true, ptr noundef null, i32 noundef 2, ptr noundef %23)
  store ptr %24, ptr %12, align 8
  br label %25

25:                                               ; preds = %51, %4
  %26 = load ptr, ptr %12, align 8
  %27 = call ptr @systable_getnext(ptr noundef %26)
  store ptr %27, ptr %13, align 8
  %28 = icmp ne ptr %27, null
  br i1 %28, label %29, label %52

29:                                               ; preds = %25
  call void @llvm.lifetime.start.p0(i64 8, ptr %14) #6
  %30 = load ptr, ptr %13, align 8
  %31 = call ptr @GETSTRUCT(ptr noundef %30)
  store ptr %31, ptr %14, align 8
  %32 = load ptr, ptr %14, align 8
  %33 = getelementptr inbounds nuw %struct.FormData_pg_depend, ptr %32, i32 0, i32 3
  %34 = load i32, ptr %33, align 4
  %35 = load i32, ptr %7, align 4
  %36 = icmp eq i32 %34, %35
  br i1 %36, label %37, label %51

37:                                               ; preds = %29
  %38 = load ptr, ptr %14, align 8
  %39 = getelementptr inbounds nuw %struct.FormData_pg_depend, ptr %38, i32 0, i32 6
  %40 = load i8, ptr %39, align 4
  %41 = sext i8 %40 to i32
  %42 = load i8, ptr %8, align 1
  %43 = sext i8 %42 to i32
  %44 = icmp eq i32 %41, %43
  br i1 %44, label %45, label %51

45:                                               ; preds = %37
  %46 = load ptr, ptr %10, align 8
  %47 = load ptr, ptr %13, align 8
  %48 = getelementptr inbounds nuw %struct.HeapTupleData, ptr %47, i32 0, i32 1
  call void @CatalogTupleDelete(ptr noundef %46, ptr noundef %48)
  %49 = load i64, ptr %9, align 8
  %50 = add i64 %49, 1
  store i64 %50, ptr %9, align 8
  br label %51

51:                                               ; preds = %45, %37, %29
  call void @llvm.lifetime.end.p0(i64 8, ptr %14) #6
  br label %25, !llvm.loop !11

52:                                               ; preds = %25
  %53 = load ptr, ptr %12, align 8
  call void @systable_endscan(ptr noundef %53)
  %54 = load ptr, ptr %10, align 8
  call void @table_close(ptr noundef %54, i32 noundef 3)
  %55 = load i64, ptr %9, align 8
  call void @llvm.lifetime.end.p0(i64 8, ptr %13) #6
  call void @llvm.lifetime.end.p0(i64 8, ptr %12) #6
  call void @llvm.lifetime.end.p0(i64 144, ptr %11) #6
  call void @llvm.lifetime.end.p0(i64 8, ptr %10) #6
  call void @llvm.lifetime.end.p0(i64 8, ptr %9) #6
  ret i64 %55
}