; Function Attrs: nounwind uwtable
define dso_local i64 @deleteDependencyRecordsForClass(i32 noundef %0, i32 noundef %1, i32 noundef %2, i8 noundef signext %3) local_unnamed_addr #0 {
  %5 = alloca [2 x %struct.ScanKeyData], align 16
  call void @llvm.lifetime.start.p0(i64 144, ptr nonnull %5) #7
  %6 = tail call ptr @table_open(i32 noundef 2608, i32 noundef 3) #7
  %7 = zext i32 %0 to i64
  call void @ScanKeyInit(ptr noundef nonnull %5, i16 noundef signext 1, i16 noundef zeroext 3, i32 noundef 184, i64 noundef %7) #7
  %8 = getelementptr inbounds nuw i8, ptr %5, i64 72
  %9 = zext i32 %1 to i64
  call void @ScanKeyInit(ptr noundef nonnull %8, i16 noundef signext 2, i16 noundef zeroext 3, i32 noundef 184, i64 noundef %9) #7
  %10 = call ptr @systable_beginscan(ptr noundef %6, i32 noundef 2673, i1 noundef zeroext true, ptr noundef null, i32 noundef 2, ptr noundef nonnull %5) #7
  %11 = call ptr @systable_getnext(ptr noundef %10) #7
  %.not15 = icmp eq ptr %11, null
  br i1 %.not15, label %._crit_edge, label %.lr.ph

.lr.ph:                                           ; preds = %4, %28
  %12 = phi ptr [ %29, %28 ], [ %11, %4 ]
  %.016 = phi i64 [ %.1, %28 ], [ 0, %4 ]
  %13 = getelementptr i8, ptr %12, i64 16
  %.val = load ptr, ptr %13, align 8
  %14 = getelementptr inbounds nuw i8, ptr %.val, i64 22
  %15 = load i8, ptr %14, align 2
  %16 = zext i8 %15 to i64
  %17 = getelementptr inbounds nuw i8, ptr %.val, i64 %16
  %18 = getelementptr inbounds nuw i8, ptr %17, i64 12
  %19 = load i32, ptr %18, align 4
  %20 = icmp eq i32 %19, %2
  br i1 %20, label %21, label %28

21:                                               ; preds = %.lr.ph
  %22 = getelementptr inbounds nuw i8, ptr %17, i64 24
  %23 = load i8, ptr %22, align 4
  %24 = icmp eq i8 %23, %3
  br i1 %24, label %25, label %28

25:                                               ; preds = %21
  %26 = getelementptr inbounds nuw i8, ptr %12, i64 4
  call void @CatalogTupleDelete(ptr noundef %6, ptr noundef nonnull %26) #7
  %27 = add i64 %.016, 1
  br label %28

28:                                               ; preds = %25, %21, %.lr.ph
  %.1 = phi i64 [ %27, %25 ], [ %.016, %21 ], [ %.016, %.lr.ph ]
  %29 = call ptr @systable_getnext(ptr noundef %10) #7
  %.not = icmp eq ptr %29, null
  br i1 %.not, label %._crit_edge, label %.lr.ph, !llvm.loop !10

._crit_edge:                                      ; preds = %28, %4
  %.0.lcssa = phi i64 [ 0, %4 ], [ %.1, %28 ]
  call void @systable_endscan(ptr noundef %10) #7
  call void @table_close(ptr noundef %6, i32 noundef 3) #7
  call void @llvm.lifetime.end.p0(i64 144, ptr nonnull %5) #7
  ret i64 %.0.lcssa
}